; Function Attrs: mustprogress nofree nounwind uwtable
define hidden noundef zeroext i1 @_Z11file_existsRKNSt7__cxx1112basic_stringIcSt11char_traitsIcESaIcEEE(ptr nocapture noundef nonnull readonly align 8 dereferenceable(32) %0) local_unnamed_addr #10 {
  %2 = load ptr, ptr %0, align 8, !tbaa !14
  %3 = tail call noalias ptr @fopen(ptr noundef %2, ptr noundef nonnull @.str.2)
  %.not = icmp ne ptr %3, null
  br i1 %.not, label %4, label %6

4:                                                ; preds = %1
  %5 = tail call i32 @fclose(ptr noundef nonnull %3)
  br label %6

6:                                                ; preds = %4, %1
  ret i1 %.not
}